target datalayout = "e-m:e-p270:32:32-p271:32:32-p272:64:64-i64:64-i128:128-f80:128-n8:16:32:64-S128"
target triple = "x86_64-pc-linux-gnu"

%struct.Port = type { i32, i8, i32, %struct.SockAddr, %struct.SockAddr, ptr, ptr, i32, i32, ptr, ptr, ptr, ptr, ptr, ptr, ptr, i32, i32, i32, i32, i32, i32, i32, i32, [32 x i8], [32 x i8], i8, ptr, i8, ptr, ptr, i8, i8, i8, ptr, ptr, ptr, i64, i64 }
%struct.SockAddr = type { %struct.sockaddr_storage, i32 }
%struct.sockaddr_storage = type { i16, [118 x i8], i64 }
%struct.List = type { i32, i32, i32, ptr, [0 x %union.ListCell] }
%union.ListCell = type { ptr }

@.str.6 = private unnamed_addr constant [9 x i8] c"postgres\00", align 1

; Function Attrs: inlinehint nounwind uwtable
define internal ptr @lnext(ptr noundef %0, ptr noundef %1) #5 {
  %3 = alloca ptr, align 8
  %4 = alloca ptr, align 8
  %5 = alloca ptr, align 8
  store ptr %0, ptr %4, align 8
  store ptr %1, ptr %5, align 8
  %6 = load ptr, ptr %5, align 8
  %7 = getelementptr inbounds nuw %union.ListCell, ptr %6, i32 1
  store ptr %7, ptr %5, align 8
  %8 = load ptr, ptr %5, align 8
  %9 = load ptr, ptr %4, align 8
  %10 = getelementptr inbounds nuw %struct.List, ptr %9, i32 0, i32 3
  %11 = load ptr, ptr %10, align 8
  %12 = load ptr, ptr %4, align 8
  %13 = getelementptr inbounds nuw %struct.List, ptr %12, i32 0, i32 1
  %14 = load i32, ptr %13, align 4
  %15 = sext i32 %14 to i64
  %16 = getelementptr inbounds %union.ListCell, ptr %11, i64 %15
  %17 = icmp ult ptr %8, %16
  br i1 %17, label %18, label %20

18:                                               ; preds = %2
  %19 = load ptr, ptr %5, align 8
  store ptr %19, ptr %3, align 8
  br label %21

20:                                               ; preds = %2
  store ptr null, ptr %3, align 8
  br label %21

21:                                               ; preds = %20, %18
  %22 = load ptr, ptr %3, align 8
  ret ptr %22
}

; Function Attrs: inlinehint nounwind uwtable
define internal ptr @list_head(ptr noundef %0) #5 {
  %2 = alloca ptr, align 8
  store ptr %0, ptr %2, align 8
  %3 = load ptr, ptr %2, align 8
  %4 = icmp ne ptr %3, null
  br i1 %4, label %5, label %10

5:                                                ; preds = %1
  %6 = load ptr, ptr %2, align 8
  %7 = getelementptr inbounds nuw %struct.List, ptr %6, i32 0, i32 3
  %8 = load ptr, ptr %7, align 8
  %9 = getelementptr inbounds %union.ListCell, ptr %8, i64 0
  br label %11

10:                                               ; preds = %1
  br label %11

11:                                               ; preds = %10, %5
  %12 = phi ptr [ %9, %5 ], [ null, %10 ]
  ret ptr %12
}

; Function Attrs: nounwind uwtable
define internal void @process_startup_options(ptr noundef %0, i1 noundef zeroext %1) #0 {
  %3 = alloca ptr, align 8
  %4 = alloca i8, align 1
  %5 = alloca i32, align 4
  %6 = alloca ptr, align 8
  %7 = alloca ptr, align 8
  %8 = alloca i32, align 4
  %9 = alloca i32, align 4
  %10 = alloca ptr, align 8
  %11 = alloca ptr, align 8
  store ptr %0, ptr %3, align 8
  %12 = zext i1 %1 to i8
  store i8 %12, ptr %4, align 1
  call void @llvm.lifetime.start.p0(i64 4, ptr %5) #8
  call void @llvm.lifetime.start.p0(i64 8, ptr %6) #8
  %13 = load i8, ptr %4, align 1, !range !6, !noundef !7
  %14 = trunc i8 %13 to i1
  %15 = select i1 %14, i32 3, i32 4
  store i32 %15, ptr %5, align 4
  %16 = load ptr, ptr %3, align 8
  %17 = getelementptr inbounds nuw %struct.Port, ptr %16, i32 0, i32 12
  %18 = load ptr, ptr %17, align 8
  %19 = icmp ne ptr %18, null
  br i1 %19, label %20, label %49

20:                                               ; preds = %2
  call void @llvm.lifetime.start.p0(i64 8, ptr %7) #8
  call void @llvm.lifetime.start.p0(i64 4, ptr %8) #8
  call void @llvm.lifetime.start.p0(i64 4, ptr %9) #8
  %21 = load ptr, ptr %3, align 8
  %22 = getelementptr inbounds nuw %struct.Port, ptr %21, i32 0, i32 12
  %23 = load ptr, ptr %22, align 8
  %24 = call i64 @strlen(ptr noundef %23) #11
  %25 = add i64 %24, 1
  %26 = udiv i64 %25, 2
  %27 = add i64 2, %26
  %28 = trunc i64 %27 to i32
  store i32 %28, ptr %8, align 4
  %29 = load i32, ptr %8, align 4
  %30 = sext i32 %29 to i64
  %31 = mul i64 %30, 8
  %32 = call ptr @palloc(i64 noundef %31)
  store ptr %32, ptr %7, align 8
  store i32 0, ptr %9, align 4
  %33 = load ptr, ptr %7, align 8
  %34 = load i32, ptr %9, align 4
  %35 = add i32 %34, 1
  store i32 %35, ptr %9, align 4
  %36 = sext i32 %34 to i64
  %37 = getelementptr inbounds ptr, ptr %33, i64 %36
  store ptr @.str.6, ptr %37, align 8
  %38 = load ptr, ptr %7, align 8
  %39 = load ptr, ptr %3, align 8
  %40 = getelementptr inbounds nuw %struct.Port, ptr %39, i32 0, i32 12
  %41 = load ptr, ptr %40, align 8
  call void @pg_split_opts(ptr noundef %38, ptr noundef %9, ptr noundef %41)
  %42 = load ptr, ptr %7, align 8
  %43 = load i32, ptr %9, align 4
  %44 = sext i32 %43 to i64
  %45 = getelementptr inbounds ptr, ptr %42, i64 %44
  store ptr null, ptr %45, align 8
  %46 = load i32, ptr %9, align 4
  %47 = load ptr, ptr %7, align 8
  %48 = load i32, ptr %5, align 4
  call void @process_postgres_switches(i32 noundef %46, ptr noundef %47, i32 noundef %48, ptr noundef null)
  call void @llvm.lifetime.end.p0(i64 4, ptr %9) #8
  call void @llvm.lifetime.end.p0(i64 4, ptr %8) #8
  call void @llvm.lifetime.end.p0(i64 8, ptr %7) #8
  br label %49

49:                                               ; preds = %20, %2
  %50 = load ptr, ptr %3, align 8
  %51 = getelementptr inbounds nuw %struct.Port, ptr %50, i32 0, i32 13
  %52 = load ptr, ptr %51, align 8
  %53 = call ptr @list_head(ptr noundef %52)
  store ptr %53, ptr %6, align 8
  br label %54

54:                                               ; preds = %57, %49
  %55 = load ptr, ptr %6, align 8
  %56 = icmp ne ptr %55, null
  br i1 %56, label %57, label %75

57:                                               ; preds = %54
  call void @llvm.lifetime.start.p0(i64 8, ptr %10) #8
  call void @llvm.lifetime.start.p0(i64 8, ptr %11) #8
  %58 = load ptr, ptr %6, align 8
  %59 = load ptr, ptr %58, align 8
  store ptr %59, ptr %10, align 8
  %60 = load ptr, ptr %3, align 8
  %61 = getelementptr inbounds nuw %struct.Port, ptr %60, i32 0, i32 13
  %62 = load ptr, ptr %61, align 8
  %63 = load ptr, ptr %6, align 8
  %64 = call ptr @lnext(ptr noundef %62, ptr noundef %63)
  store ptr %64, ptr %6, align 8
  %65 = load ptr, ptr %6, align 8
  %66 = load ptr, ptr %65, align 8
  store ptr %66, ptr %11, align 8
  %67 = load ptr, ptr %3, align 8
  %68 = getelementptr inbounds nuw %struct.Port, ptr %67, i32 0, i32 13
  %69 = load ptr, ptr %68, align 8
  %70 = load ptr, ptr %6, align 8
  %71 = call ptr @lnext(ptr noundef %69, ptr noundef %70)
  store ptr %71, ptr %6, align 8
  %72 = load ptr, ptr %10, align 8
  %73 = load ptr, ptr %11, align 8
  %74 = load i32, ptr %5, align 4
  call void @SetConfigOption(ptr noundef %72, ptr noundef %73, i32 noundef %74, i32 noundef 9)
  call void @llvm.lifetime.end.p0(i64 8, ptr %11) #8
  call void @llvm.lifetime.end.p0(i64 8, ptr %10) #8
  br label %54, !llvm.loop !11

75:                                               ; preds = %54
  call void @llvm.lifetime.end.p0(i64 8, ptr %6) #8
  call void @llvm.lifetime.end.p0(i64 4, ptr %5) #8
  ret void
}