; Function Attrs: nounwind uwtable
define internal fastcc void @process_startup_options(ptr noundef nonnull readonly captures(none) %0, i1 noundef zeroext %1) unnamed_addr #0 {
  %3 = alloca i32, align 4
  %4 = select i1 %1, i32 3, i32 4
  %5 = getelementptr inbounds nuw i8, ptr %0, i64 336
  %6 = load ptr, ptr %5, align 8
  %.not = icmp eq ptr %6, null
  br i1 %.not, label %17, label %7

7:                                                ; preds = %2
  call void @llvm.lifetime.start.p0(i64 4, ptr nonnull %3) #12
  %8 = tail call i64 @strlen(ptr noundef nonnull dereferenceable(1) %6) #15
  %9 = shl i64 %8, 31
  %sext = add i64 %9, 10737418240
  %10 = ashr exact i64 %sext, 29
  %11 = and i64 %10, -8
  %12 = tail call ptr @palloc(i64 noundef %11) #12
  store i32 1, ptr %3, align 4
  store ptr @.str.6, ptr %12, align 8
  %13 = load ptr, ptr %5, align 8
  call void @pg_split_opts(ptr noundef nonnull %12, ptr noundef nonnull %3, ptr noundef %13)
  %14 = load i32, ptr %3, align 4
  %15 = sext i32 %14 to i64
  %16 = getelementptr inbounds ptr, ptr %12, i64 %15
  store ptr null, ptr %16, align 8
  tail call void @process_postgres_switches(i32 noundef %14, ptr noundef nonnull %12, i32 noundef %4, ptr noundef null) #12
  call void @llvm.lifetime.end.p0(i64 4, ptr nonnull %3) #12
  br label %17

17:                                               ; preds = %7, %2
  %18 = getelementptr inbounds nuw i8, ptr %0, i64 344
  %19 = load ptr, ptr %18, align 8
  %.not.i = icmp eq ptr %19, null
  br i1 %.not.i, label %select.unfold._crit_edge, label %list_head.exit

list_head.exit:                                   ; preds = %17
  %20 = getelementptr inbounds nuw i8, ptr %19, i64 16
  %21 = load ptr, ptr %20, align 8
  %.not2025 = icmp eq ptr %21, null
  br i1 %.not2025, label %select.unfold._crit_edge, label %select.unfold

select.unfold:                                    ; preds = %list_head.exit, %select.unfold
  %.026 = phi ptr [ %31, %select.unfold ], [ %21, %list_head.exit ]
  %22 = load ptr, ptr %.026, align 8
  %23 = load ptr, ptr %18, align 8
  %24 = getelementptr i8, ptr %23, i64 4
  %.val = load i32, ptr %24, align 4
  %25 = getelementptr i8, ptr %23, i64 16
  %.val21 = load ptr, ptr %25, align 8
  %26 = getelementptr inbounds nuw i8, ptr %.026, i64 8
  %27 = sext i32 %.val to i64
  %28 = getelementptr inbounds %union.ListCell, ptr %.val21, i64 %27
  %29 = icmp ult ptr %26, %28
  %..i = select i1 %29, ptr %26, ptr null
  %30 = load ptr, ptr %..i, align 8
  %31 = getelementptr inbounds nuw i8, ptr %..i, i64 8
  %.not27 = icmp ult ptr %31, %28
  tail call void @SetConfigOption(ptr noundef %22, ptr noundef %30, i32 noundef %4, i32 noundef 9) #12
  br i1 %.not27, label %select.unfold, label %select.unfold._crit_edge

select.unfold._crit_edge:                         ; preds = %select.unfold, %17, %list_head.exit
  ret void
}